V/* line 4 */\u000ah1 {\u000a  font: 24pt Helvetica, sans-serif;\u000a  color: #8e8e8e;\u000a}\u000a\u000a/* line 9 */\u000atd {\u000a  padding: 2em;\u000a}\u000a\u000a/* line 13 */\u000athead td {\u000a  font-weight: bolder;\u000a  border-bottom: 1px solid #000;\u000a}\u000a\u000a/* line 17 */\u000a.cover-image {\u000a  background: #8c8c8c;\u000a}\u000a
p1
.