V/* line 1 */\u000ahtml, body {\u000a  margin: 20px;\u000a  padding: 0;\u000a  font-family: Helvetica, Helvetica Neue, Arial, sans-serif;\u000a  font-size: 14px;\u000a}\u000a\u000a/* line 6 */\u000a.container {\u000a  text-align: center;\u000a  margin: 0 auto;\u000a  width: 500px;\u000a}\u000a
p1
.