Vh1{font:24pt Helvetica,sans-serif;color:#8e8e8e}td{padding:3em}thead td{font-weight:bolder;border:1px solid #000}html,body{margin:20px;padding:0;font-family:Helvetica,Helvetica Neue,Arial,sans-serif;font-size:14px}.container{text-align:center;margin:0 auto;width:500px}
p1
.